; ModuleID = 'source-C-CXX/22/872.c'
source_filename = "source-C-CXX/22/872.c"
target datalayout = "e-m:e-p270:32:32-p271:32:32-p272:64:64-i64:64-f80:128-n8:16:32:64-S128"
target triple = "x86_64-pc-linux-gnu"

; Function Attrs: nounwind sspstrong uwtable
define dso_local i32 @main() local_unnamed_addr #0 {
  %1 = alloca [100 x i8], align 16
  %2 = getelementptr inbounds [100 x i8], [100 x i8]* %1, i64 0, i64 0
  call void @llvm.lifetime.start.p0i8(i64 100, i8* nonnull %2) #5
  %3 = call i32 (i8*, ...) bitcast (i32 (...)* @gets to i32 (i8*, ...)*)(i8* nonnull %2) #5
  %4 = call i64 @strlen(i8* noundef nonnull %2) #6
  %5 = trunc i64 %4 to i32
  %6 = icmp sgt i32 %5, 0
  br i1 %6, label %7, label %57

7:                                                ; preds = %0
  %8 = and i64 %4, 4294967295
  br label %9

9:                                                ; preds = %7, %53
  %10 = phi i64 [ %8, %7 ], [ %56, %53 ]
  %11 = phi i32 [ 0, %7 ], [ %54, %53 ]
  %12 = phi i32 [ %5, %7 ], [ %13, %53 ]
  %13 = add nsw i32 %12, -1
  %14 = zext i32 %13 to i64
  %15 = getelementptr inbounds [100 x i8], [100 x i8]* %1, i64 0, i64 %14
  %16 = load i8, i8* %15, align 1, !tbaa !5
  %17 = icmp eq i8 %16, 32
  %18 = add nsw i32 %11, 1
  %19 = select i1 %17, i32 %11, i32 %18
  br i1 %17, label %20, label %39

20:                                               ; preds = %9
  %21 = icmp sgt i32 %19, 0
  br i1 %21, label %22, label %35

22:                                               ; preds = %20
  %23 = zext i32 %19 to i64
  br label %24

24:                                               ; preds = %22, %24
  %25 = phi i64 [ 0, %22 ], [ %33, %24 ]
  %26 = add i64 %25, %10
  %27 = shl i64 %26, 32
  %28 = ashr exact i64 %27, 32
  %29 = getelementptr inbounds [100 x i8], [100 x i8]* %1, i64 0, i64 %28
  %30 = load i8, i8* %29, align 1, !tbaa !5
  %31 = sext i8 %30 to i32
  %32 = call i32 @putchar(i32 %31)
  %33 = add nuw nsw i64 %25, 1
  %34 = icmp eq i64 %33, %23
  br i1 %34, label %35, label %24, !llvm.loop !8

35:                                               ; preds = %24, %20
  %36 = icmp eq i32 %13, 0
  br i1 %36, label %53, label %37

37:                                               ; preds = %35
  %38 = call i32 @putchar(i32 32)
  br label %53

39:                                               ; preds = %9
  %40 = icmp eq i32 %13, 0
  %41 = icmp sgt i32 %11, -1
  %42 = select i1 %40, i1 %41, i1 false
  br i1 %42, label %43, label %53

43:                                               ; preds = %39
  %44 = zext i32 %18 to i64
  br label %45

45:                                               ; preds = %43, %45
  %46 = phi i64 [ 0, %43 ], [ %51, %45 ]
  %47 = getelementptr inbounds [100 x i8], [100 x i8]* %1, i64 0, i64 %46
  %48 = load i8, i8* %47, align 1, !tbaa !5
  %49 = sext i8 %48 to i32
  %50 = call i32 @putchar(i32 %49)
  %51 = add nuw nsw i64 %46, 1
  %52 = icmp eq i64 %51, %44
  br i1 %52, label %53, label %45, !llvm.loop !10

53:                                               ; preds = %45, %35, %37, %39
  %54 = phi i32 [ 0, %37 ], [ %18, %39 ], [ 0, %35 ], [ %18, %45 ]
  %55 = icmp sgt i64 %10, 1
  %56 = add nsw i64 %10, -1
  br i1 %55, label %9, label %57, !llvm.loop !11

57:                                               ; preds = %53, %0
  call void @llvm.lifetime.end.p0i8(i64 100, i8* nonnull %2) #5
  ret i32 0
}

; Function Attrs: argmemonly mustprogress nofree nosync nounwind willreturn
declare void @llvm.lifetime.start.p0i8(i64 immarg, i8* nocapture) #1

declare i32 @gets(...) local_unnamed_addr #2

; Function Attrs: argmemonly mustprogress nofree nounwind readonly willreturn
declare i64 @strlen(i8* nocapture) local_unnamed_addr #3

; Function Attrs: argmemonly mustprogress nofree nosync nounwind willreturn
declare void @llvm.lifetime.end.p0i8(i64 immarg, i8* nocapture) #1

; Function Attrs: nofree nounwind
declare noundef i32 @putchar(i32 noundef) local_unnamed_addr #4


!llvm.module.flags = !{!0, !1, !2, !3}
!llvm.ident = !{!4}

!0 = !{i32 1, !"wchar_size", i32 4}
!1 = !{i32 7, !"PIC Level", i32 2}
!2 = !{i32 7, !"PIE Level", i32 2}
!3 = !{i32 7, !"uwtable", i32 1}
!4 = !{!"clang version 13.0.0"}
!5 = !{!6, !6, i64 0}
!6 = !{!"omnipotent char", !7, i64 0}
!7 = !{!"Simple C/C++ TBAA"}
!8 = distinct !{!8, !9}
!9 = !{!"llvm.loop.mustprogress"}
!10 = distinct !{!10, !9}
!11 = distinct !{!11, !9}
